target datalayout = "e-m:e-p270:32:32-p271:32:32-p272:64:64-i64:64-i128:128-f80:128-n8:16:32:64-S128"
target triple = "x86_64-pc-linux-gnu"

@.str.169 = private unnamed_addr constant [20 x i8] c"SIMULCRYPT Protocol\00", align 1
@.str.170 = private unnamed_addr constant [11 x i8] c"SIMULCRYPT\00", align 1
@.str.171 = private unnamed_addr constant [11 x i8] c"simulcrypt\00", align 1
@proto_simulcrypt = internal global i32 0, align 4
@simulcrypt_handle = internal global ptr null, align 8
@.str.172 = private unnamed_addr constant [19 x i8] c"ca_system_id_mikey\00", align 1
@.str.173 = private unnamed_addr constant [32 x i8] c"MIKEY ECM CA_system_ID (in hex)\00", align 1
@.str.174 = private unnamed_addr constant [58 x i8] c"Set the CA_system_ID used to decode ECM datagram as MIKEY\00", align 1
@ca_system_id_mikey = internal global i32 39321, align 4

; Function Attrs: null_pointer_is_valid sspstrong uwtable
define hidden void @proto_register_simulcrypt() #0 {
  %1 = alloca ptr, align 8
  call void @llvm.lifetime.start.p0(i64 8, ptr %1) #5
  %2 = call i32 @proto_register_protocol(ptr noundef @.str.169, ptr noundef @.str.170, ptr noundef @.str.171)
  store i32 %2, ptr @proto_simulcrypt, align 4
  %3 = load i32, ptr @proto_simulcrypt, align 4
  call void @proto_register_field_array(i32 noundef %3, ptr noundef @proto_register_simulcrypt.hf, i32 noundef 91)
  call void @proto_register_subtree_array(ptr noundef @proto_register_simulcrypt.ett, i32 noundef 9)
  call void @register_init_routine(ptr noundef @simulcrypt_init)
  %4 = load i32, ptr @proto_simulcrypt, align 4
  %5 = call ptr @register_dissector(ptr noundef @.str.171, ptr noundef @dissect_simulcrypt, i32 noundef %4)
  store ptr %5, ptr @simulcrypt_handle, align 8
  %6 = load i32, ptr @proto_simulcrypt, align 4
  %7 = call ptr @prefs_register_protocol(i32 noundef %6, ptr noundef @proto_reg_handoff_simulcrypt)
  store ptr %7, ptr %1, align 8
  %8 = load ptr, ptr %1, align 8
  call void @prefs_register_uint_preference(ptr noundef %8, ptr noundef @.str.172, ptr noundef @.str.173, ptr noundef @.str.174, i32 noundef 16, ptr noundef @ca_system_id_mikey)
  call void @llvm.lifetime.end.p0(i64 8, ptr %1) #5
  ret void
}