; Function Attrs: null_pointer_is_valid sspstrong uwtable
define hidden void @proto_register_simulcrypt() local_unnamed_addr #0 {
  %1 = tail call i32 @proto_register_protocol(ptr noundef nonnull @.str.169, ptr noundef nonnull @.str.170, ptr noundef nonnull @.str.171)
  store i32 %1, ptr @proto_simulcrypt, align 4
  tail call void @proto_register_field_array(i32 noundef %1, ptr noundef nonnull @proto_register_simulcrypt.hf, i32 noundef 91)
  tail call void @proto_register_subtree_array(ptr noundef nonnull @proto_register_simulcrypt.ett, i32 noundef 9)
  tail call void @register_init_routine(ptr noundef nonnull @simulcrypt_init)
  %2 = load i32, ptr @proto_simulcrypt, align 4
  %3 = tail call ptr @register_dissector(ptr noundef nonnull @.str.171, ptr noundef nonnull @dissect_simulcrypt, i32 noundef %2)
  store ptr %3, ptr @simulcrypt_handle, align 8
  %4 = load i32, ptr @proto_simulcrypt, align 4
  %5 = tail call ptr @prefs_register_protocol(i32 noundef %4, ptr noundef nonnull @proto_reg_handoff_simulcrypt)
  tail call void @prefs_register_uint_preference(ptr noundef %5, ptr noundef nonnull @.str.172, ptr noundef nonnull @.str.173, ptr noundef nonnull @.str.174, i32 noundef 16, ptr noundef nonnull @ca_system_id_mikey)
  ret void
}